; Function Attrs: mustprogress null_pointer_is_valid sspstrong uwtable
define internal void @"_ZN9QtPrivate18QFunctorSlotObjectIZN19WiresharkMainWindow22connectViewMenuActionsEvE4$_14Li0ENS_4ListIJEEEvE4implEiPNS_15QSlotObjectBaseEP7QObjectPPvPb"(i32 noundef %0, ptr noundef %1, ptr readnone captures(none) %2, ptr readnone captures(none) %3, ptr readnone captures(none) %4) #0 align 2 {
  %6 = alloca %class.QModelIndex, align 8
  switch i32 %0, label %"_ZN9QtPrivate7FunctorIZN19WiresharkMainWindow22connectViewMenuActionsEvE4$_14Li0EE4callINS_4ListIJEEEvEEvRS2_PvPS8_.exit" [
    i32 0, label %7
    i32 1, label %10
  ]

7:                                                ; preds = %5
  %8 = icmp eq ptr %1, null
  br i1 %8, label %"_ZN9QtPrivate7FunctorIZN19WiresharkMainWindow22connectViewMenuActionsEvE4$_14Li0EE4callINS_4ListIJEEEvEEvRS2_PvPS8_.exit", label %9

9:                                                ; preds = %7
  tail call void @_ZdlPvm(ptr noundef nonnull %1, i64 noundef 24) #26
  br label %"_ZN9QtPrivate7FunctorIZN19WiresharkMainWindow22connectViewMenuActionsEvE4$_14Li0EE4callINS_4ListIJEEEvEEvRS2_PvPS8_.exit"

10:                                               ; preds = %5
  %11 = getelementptr inbounds nuw i8, ptr %1, i64 16
  %.val = load ptr, ptr %11, align 8
  %12 = getelementptr inbounds nuw i8, ptr %.val, i64 272
  %13 = load ptr, ptr %12, align 8
  %14 = tail call noundef ptr @_ZNK17QAbstractItemView5modelEv(ptr noundef align 8 dereferenceable_or_null(40) %13)
  %.not.i.i.i = icmp eq ptr %14, null
  br i1 %.not.i.i.i, label %"_ZN9QtPrivate7FunctorIZN19WiresharkMainWindow22connectViewMenuActionsEvE4$_14Li0EE4callINS_4ListIJEEEvEEvRS2_PvPS8_.exit", label %.preheader.i.i.i

.preheader.i.i.i:                                 ; preds = %10
  %15 = load ptr, ptr %12, align 8
  %16 = tail call noundef ptr @_ZNK17QAbstractItemView5modelEv(ptr noundef align 8 dereferenceable_or_null(40) %15)
  call void @llvm.lifetime.start.p0(i64 24, ptr nonnull %6) #25
  store i32 -1, ptr %6, align 8
  %17 = getelementptr inbounds nuw i8, ptr %6, i64 4
  store i32 -1, ptr %17, align 4
  %18 = getelementptr inbounds nuw i8, ptr %6, i64 8
  call void @llvm.memset.p0.i64(ptr noundef nonnull align 8 dereferenceable(16) %18, i8 0, i64 16, i1 false)
  %19 = load ptr, ptr %16, align 8
  %20 = getelementptr inbounds nuw i8, ptr %19, i64 128
  %21 = load ptr, ptr %20, align 8
  %22 = call noundef i32 %21(ptr noundef align 8 dereferenceable_or_null(16) %16, ptr noundef nonnull align 8 dereferenceable(24) %6)
  %23 = icmp sgt i32 %22, 0
  call void @llvm.lifetime.end.p0(i64 24, ptr nonnull %6) #25
  br i1 %23, label %.lr.ph.i.i.i, label %"_ZN9QtPrivate7FunctorIZN19WiresharkMainWindow22connectViewMenuActionsEvE4$_14Li0EE4callINS_4ListIJEEEvEEvRS2_PvPS8_.exit"

.lr.ph.i.i.i:                                     ; preds = %.preheader.i.i.i, %.lr.ph.i.i.i
  %.01.i.i.i = phi i32 [ %27, %.lr.ph.i.i.i ], [ 0, %.preheader.i.i.i ]
  %24 = load ptr, ptr %12, align 8
  call void @_ZN9QTreeView22resizeColumnToContentsEi(ptr noundef align 8 dereferenceable_or_null(40) %24, i32 noundef %.01.i.i.i)
  %25 = load ptr, ptr %12, align 8
  %26 = call noundef i32 @_ZNK9QTreeView11columnWidthEi(ptr noundef align 8 dereferenceable_or_null(40) %25, i32 noundef %.01.i.i.i)
  call void @recent_set_column_width(i32 noundef %.01.i.i.i, i32 noundef %26)
  %27 = add nuw nsw i32 %.01.i.i.i, 1
  %28 = load ptr, ptr %12, align 8
  %29 = call noundef ptr @_ZNK17QAbstractItemView5modelEv(ptr noundef align 8 dereferenceable_or_null(40) %28)
  call void @llvm.lifetime.start.p0(i64 24, ptr nonnull %6) #25
  store i32 -1, ptr %6, align 8
  store i32 -1, ptr %17, align 4
  call void @llvm.memset.p0.i64(ptr noundef nonnull align 8 dereferenceable(16) %18, i8 0, i64 16, i1 false)
  %30 = load ptr, ptr %29, align 8
  %31 = getelementptr inbounds nuw i8, ptr %30, i64 128
  %32 = load ptr, ptr %31, align 8
  %33 = call noundef i32 %32(ptr noundef align 8 dereferenceable_or_null(16) %29, ptr noundef nonnull align 8 dereferenceable(24) %6)
  %34 = icmp slt i32 %27, %33
  call void @llvm.lifetime.end.p0(i64 24, ptr nonnull %6) #25
  br i1 %34, label %.lr.ph.i.i.i, label %"_ZN9QtPrivate7FunctorIZN19WiresharkMainWindow22connectViewMenuActionsEvE4$_14Li0EE4callINS_4ListIJEEEvEEvRS2_PvPS8_.exit", !llvm.loop !1036

"_ZN9QtPrivate7FunctorIZN19WiresharkMainWindow22connectViewMenuActionsEvE4$_14Li0EE4callINS_4ListIJEEEvEEvRS2_PvPS8_.exit": ; preds = %.lr.ph.i.i.i, %.preheader.i.i.i, %10, %7, %9, %5
  ret void
}